(dp1
S'cookies'
p2
S''
sS'logs'
p3
I00
sS'exnamespaces'
p4
(lp5
sS'images'
p6
I01
sS'api'
p7
S'http://api.wikia.com/api.php'
p8
sS'namespaces'
p9
(lp10
S'all'
p11
asS'date'
p12
S'20140127'
p13
sS'path'
p14
S'./apiwikiacom-20140127-wikidump'
p15
sS'xml'
p16
I01
sS'index'
p17
S'http://api.wikia.com/index.php'
p18
sS'curonly'
p19
I00
sS'delay'
p20
I0
s.